; Function Attrs: nounwind uwtable
define internal noundef i32 @show_abbrev(ptr noundef %0, ptr readnone captures(none) %1) #0 {
  %3 = load i32, ptr @filter, align 4, !tbaa !9
  %4 = and i32 %3, 1
  %.not.i = icmp eq i32 %4, 0
  br i1 %.not.i, label %show_rev.exit, label %5

5:                                                ; preds = %2
  store ptr null, ptr @def, align 8, !tbaa !4
  %6 = load i32, ptr @abbrev, align 4, !tbaa !9
  %.not18.i = icmp eq i32 %6, 0
  br i1 %.not18.i, label %10, label %7

7:                                                ; preds = %5
  %8 = load ptr, ptr @the_repository, align 8, !tbaa !39
  %9 = tail call ptr @repo_find_unique_abbrev(ptr noundef %8, ptr noundef %0, i32 noundef %6) #19
  br label %show_rev.exit.sink.split

10:                                               ; preds = %5
  %11 = tail call ptr @oid_to_hex(ptr noundef %0) #19
  br label %show_rev.exit.sink.split

show_rev.exit.sink.split:                         ; preds = %10, %7
  %.sink = phi ptr [ %9, %7 ], [ %11, %10 ]
  tail call fastcc void @show_with_type(i32 noundef 0, ptr noundef %.sink)
  br label %show_rev.exit

show_rev.exit:                                    ; preds = %show_rev.exit.sink.split, %2
  ret i32 0
}